target datalayout = "e-m:e-p270:32:32-p271:32:32-p272:64:64-i64:64-i128:128-f80:128-n8:16:32:64-S128"
target triple = "x86_64-pc-linux-gnu"

%struct.lua_TValue = type { %union.Value, [1 x i32], i32 }
%union.Value = type { ptr }
%struct.lua_State = type { i8, i8, i8, i8, i8, i8, i8, ptr, ptr, ptr, ptr, ptr, ptr, ptr, ptr, i32, i32, i16, i16, i32, ptr, ptr, ptr, ptr, ptr }
%struct.global_State = type { %struct.stringtable, ptr, ptr, i8, i8, ptr, ptr, ptr, i64, i64, i32, i32, i32, [40 x ptr], [40 x ptr], ptr, ptr, ptr, [256 x i64], ptr, %struct.UpVal, [11 x ptr], [11 x ptr], [21 x ptr], %struct.lua_TValue, %struct.lua_TValue, i32, ptr, i64, [4 x i64], %struct.lua_Callbacks, %struct.lua_ExecutionCallbacks, [128 x ptr], [128 x ptr], [128 x ptr], %struct.GCStats }
%struct.stringtable = type { ptr, i32, i32 }
%struct.UpVal = type { i8, i8, i8, i8, ptr, %union.anon }
%union.anon = type { %struct.anon }
%struct.anon = type { ptr, ptr, ptr }
%struct.lua_Callbacks = type { ptr, ptr, ptr, ptr, ptr, ptr, ptr, ptr, ptr, ptr }
%struct.lua_ExecutionCallbacks = type { ptr, ptr, ptr, ptr, ptr, ptr, ptr }
%struct.GCStats = type { [32 x i32], i32, i32, i64, i64, i64, double, double, double }
%struct.TString = type { i8, i8, i8, i16, ptr, i32, i32, [1 x i8] }
%struct.Udata = type { i8, i8, i8, i8, i32, ptr, %union.anon.1 }
%union.anon.1 = type { %union.L_Umaxalign }
%union.L_Umaxalign = type { double }

; Function Attrs: mustprogress uwtable
define hidden noundef ptr @_Z19luaT_objtypenamestrP9lua_StatePK10lua_TValue(ptr noundef %0, ptr noundef %1) #0 {
  %3 = alloca ptr, align 8
  %4 = alloca ptr, align 8
  %5 = alloca ptr, align 8
  %6 = alloca ptr, align 8
  %7 = alloca i32, align 4
  %8 = alloca i32, align 4
  %9 = alloca ptr, align 8
  %10 = alloca ptr, align 8
  %11 = alloca ptr, align 8
  store ptr %0, ptr %4, align 8, !tbaa !4
  store ptr %1, ptr %5, align 8, !tbaa !33
  %12 = load ptr, ptr %5, align 8, !tbaa !33
  %13 = getelementptr inbounds nuw %struct.lua_TValue, ptr %12, i32 0, i32 2
  %14 = load i32, ptr %13, align 4, !tbaa !34
  %15 = icmp eq i32 %14, 8
  br i1 %15, label %16, label %64

16:                                               ; preds = %2
  %17 = load ptr, ptr %5, align 8, !tbaa !33
  %18 = getelementptr inbounds nuw %struct.lua_TValue, ptr %17, i32 0, i32 0
  %19 = load ptr, ptr %18, align 8, !tbaa !39
  %20 = getelementptr inbounds nuw %struct.Udata, ptr %19, i32 0, i32 3
  %21 = load i8, ptr %20, align 1, !tbaa !43
  %22 = zext i8 %21 to i32
  %23 = icmp ne i32 %22, 129
  br i1 %23, label %24, label %64

24:                                               ; preds = %16
  %25 = load ptr, ptr %5, align 8, !tbaa !33
  %26 = getelementptr inbounds nuw %struct.lua_TValue, ptr %25, i32 0, i32 0
  %27 = load ptr, ptr %26, align 8, !tbaa !39
  %28 = getelementptr inbounds nuw %struct.Udata, ptr %27, i32 0, i32 5
  %29 = load ptr, ptr %28, align 8, !tbaa !41
  %30 = icmp ne ptr %29, null
  br i1 %30, label %31, label %64

31:                                               ; preds = %24
  call void @llvm.lifetime.start.p0(i64 8, ptr %6) #4
  %32 = load ptr, ptr %5, align 8, !tbaa !33
  %33 = getelementptr inbounds nuw %struct.lua_TValue, ptr %32, i32 0, i32 0
  %34 = load ptr, ptr %33, align 8, !tbaa !39
  %35 = getelementptr inbounds nuw %struct.Udata, ptr %34, i32 0, i32 5
  %36 = load ptr, ptr %35, align 8, !tbaa !41
  %37 = load ptr, ptr %4, align 8, !tbaa !4
  %38 = getelementptr inbounds nuw %struct.lua_State, ptr %37, i32 0, i32 9
  %39 = load ptr, ptr %38, align 8, !tbaa !13
  %40 = getelementptr inbounds nuw %struct.global_State, ptr %39, i32 0, i32 23
  %41 = getelementptr inbounds nuw [21 x ptr], ptr %40, i64 0, i64 19
  %42 = load ptr, ptr %41, align 8, !tbaa !24
  %43 = call noundef ptr @_Z11luaH_getstrP8LuaTableP7TString(ptr noundef %36, ptr noundef %42)
  store ptr %43, ptr %6, align 8, !tbaa !33
  %44 = load ptr, ptr %6, align 8, !tbaa !33
  %45 = getelementptr inbounds nuw %struct.lua_TValue, ptr %44, i32 0, i32 2
  %46 = load i32, ptr %45, align 4, !tbaa !34
  %47 = icmp eq i32 %46, 5
  br i1 %47, label %48, label %52

48:                                               ; preds = %31
  %49 = load ptr, ptr %6, align 8, !tbaa !33
  %50 = getelementptr inbounds nuw %struct.lua_TValue, ptr %49, i32 0, i32 0
  %51 = load ptr, ptr %50, align 8, !tbaa !39
  store ptr %51, ptr %3, align 8
  store i32 1, ptr %7, align 4
  br label %63

52:                                               ; preds = %31
  %53 = load ptr, ptr %4, align 8, !tbaa !4
  %54 = getelementptr inbounds nuw %struct.lua_State, ptr %53, i32 0, i32 9
  %55 = load ptr, ptr %54, align 8, !tbaa !13
  %56 = getelementptr inbounds nuw %struct.global_State, ptr %55, i32 0, i32 22
  %57 = load ptr, ptr %5, align 8, !tbaa !33
  %58 = getelementptr inbounds nuw %struct.lua_TValue, ptr %57, i32 0, i32 2
  %59 = load i32, ptr %58, align 4, !tbaa !34
  %60 = sext i32 %59 to i64
  %61 = getelementptr inbounds [11 x ptr], ptr %56, i64 0, i64 %60
  %62 = load ptr, ptr %61, align 8, !tbaa !24
  store ptr %62, ptr %3, align 8
  store i32 1, ptr %7, align 4
  br label %63

63:                                               ; preds = %52, %48
  call void @llvm.lifetime.end.p0(i64 8, ptr %6) #4
  br label %145

64:                                               ; preds = %24, %16, %2
  %65 = load ptr, ptr %5, align 8, !tbaa !33
  %66 = getelementptr inbounds nuw %struct.lua_TValue, ptr %65, i32 0, i32 2
  %67 = load i32, ptr %66, align 4, !tbaa !34
  %68 = icmp eq i32 %67, 2
  br i1 %68, label %69, label %97

69:                                               ; preds = %64
  call void @llvm.lifetime.start.p0(i64 4, ptr %8) #4
  %70 = load ptr, ptr %5, align 8, !tbaa !33
  %71 = getelementptr inbounds nuw %struct.lua_TValue, ptr %70, i32 0, i32 1
  %72 = getelementptr inbounds [1 x i32], ptr %71, i64 0, i64 0
  %73 = load i32, ptr %72, align 8, !tbaa !9
  store i32 %73, ptr %8, align 4, !tbaa !9
  %74 = load i32, ptr %8, align 4, !tbaa !9
  %75 = icmp ult i32 %74, 128
  br i1 %75, label %76, label %93

76:                                               ; preds = %69
  call void @llvm.lifetime.start.p0(i64 8, ptr %9) #4
  %77 = load ptr, ptr %4, align 8, !tbaa !4
  %78 = getelementptr inbounds nuw %struct.lua_State, ptr %77, i32 0, i32 9
  %79 = load ptr, ptr %78, align 8, !tbaa !13
  %80 = getelementptr inbounds nuw %struct.global_State, ptr %79, i32 0, i32 34
  %81 = load i32, ptr %8, align 4, !tbaa !9
  %82 = sext i32 %81 to i64
  %83 = getelementptr inbounds [128 x ptr], ptr %80, i64 0, i64 %82
  %84 = load ptr, ptr %83, align 8, !tbaa !24
  store ptr %84, ptr %9, align 8, !tbaa !24
  %85 = load ptr, ptr %9, align 8, !tbaa !24
  %86 = icmp ne ptr %85, null
  br i1 %86, label %87, label %89

87:                                               ; preds = %76
  %88 = load ptr, ptr %9, align 8, !tbaa !24
  store ptr %88, ptr %3, align 8
  store i32 1, ptr %7, align 4
  br label %90

89:                                               ; preds = %76
  store i32 0, ptr %7, align 4
  br label %90

90:                                               ; preds = %89, %87
  call void @llvm.lifetime.end.p0(i64 8, ptr %9) #4
  %91 = load i32, ptr %7, align 4
  switch i32 %91, label %94 [
    i32 0, label %92
  ]

92:                                               ; preds = %90
  br label %93

93:                                               ; preds = %92, %69
  store i32 0, ptr %7, align 4
  br label %94

94:                                               ; preds = %93, %90
  call void @llvm.lifetime.end.p0(i64 4, ptr %8) #4
  %95 = load i32, ptr %7, align 4
  switch i32 %95, label %147 [
    i32 0, label %96
    i32 1, label %145
  ]

96:                                               ; preds = %94
  br label %97

97:                                               ; preds = %96, %64
  call void @llvm.lifetime.start.p0(i64 8, ptr %10) #4
  %98 = load ptr, ptr %4, align 8, !tbaa !4
  %99 = getelementptr inbounds nuw %struct.lua_State, ptr %98, i32 0, i32 9
  %100 = load ptr, ptr %99, align 8, !tbaa !13
  %101 = getelementptr inbounds nuw %struct.global_State, ptr %100, i32 0, i32 21
  %102 = load ptr, ptr %5, align 8, !tbaa !33
  %103 = getelementptr inbounds nuw %struct.lua_TValue, ptr %102, i32 0, i32 2
  %104 = load i32, ptr %103, align 4, !tbaa !34
  %105 = sext i32 %104 to i64
  %106 = getelementptr inbounds [11 x ptr], ptr %101, i64 0, i64 %105
  %107 = load ptr, ptr %106, align 8, !tbaa !30
  store ptr %107, ptr %10, align 8, !tbaa !30
  %108 = load ptr, ptr %10, align 8, !tbaa !30
  %109 = icmp ne ptr %108, null
  br i1 %109, label %110, label %131

110:                                              ; preds = %97
  call void @llvm.lifetime.start.p0(i64 8, ptr %11) #4
  %111 = load ptr, ptr %10, align 8, !tbaa !30
  %112 = load ptr, ptr %4, align 8, !tbaa !4
  %113 = getelementptr inbounds nuw %struct.lua_State, ptr %112, i32 0, i32 9
  %114 = load ptr, ptr %113, align 8, !tbaa !13
  %115 = getelementptr inbounds nuw %struct.global_State, ptr %114, i32 0, i32 23
  %116 = getelementptr inbounds nuw [21 x ptr], ptr %115, i64 0, i64 19
  %117 = load ptr, ptr %116, align 8, !tbaa !24
  %118 = call noundef ptr @_Z11luaH_getstrP8LuaTableP7TString(ptr noundef %111, ptr noundef %117)
  store ptr %118, ptr %11, align 8, !tbaa !33
  %119 = load ptr, ptr %11, align 8, !tbaa !33
  %120 = getelementptr inbounds nuw %struct.lua_TValue, ptr %119, i32 0, i32 2
  %121 = load i32, ptr %120, align 4, !tbaa !34
  %122 = icmp eq i32 %121, 5
  br i1 %122, label %123, label %127

123:                                              ; preds = %110
  %124 = load ptr, ptr %11, align 8, !tbaa !33
  %125 = getelementptr inbounds nuw %struct.lua_TValue, ptr %124, i32 0, i32 0
  %126 = load ptr, ptr %125, align 8, !tbaa !39
  store ptr %126, ptr %3, align 8
  store i32 1, ptr %7, align 4
  br label %128

127:                                              ; preds = %110
  store i32 0, ptr %7, align 4
  br label %128

128:                                              ; preds = %127, %123
  call void @llvm.lifetime.end.p0(i64 8, ptr %11) #4
  %129 = load i32, ptr %7, align 4
  switch i32 %129, label %132 [
    i32 0, label %130
  ]

130:                                              ; preds = %128
  br label %131

131:                                              ; preds = %130, %97
  store i32 0, ptr %7, align 4
  br label %132

132:                                              ; preds = %131, %128
  call void @llvm.lifetime.end.p0(i64 8, ptr %10) #4
  %133 = load i32, ptr %7, align 4
  switch i32 %133, label %147 [
    i32 0, label %134
    i32 1, label %145
  ]

134:                                              ; preds = %132
  %135 = load ptr, ptr %4, align 8, !tbaa !4
  %136 = getelementptr inbounds nuw %struct.lua_State, ptr %135, i32 0, i32 9
  %137 = load ptr, ptr %136, align 8, !tbaa !13
  %138 = getelementptr inbounds nuw %struct.global_State, ptr %137, i32 0, i32 22
  %139 = load ptr, ptr %5, align 8, !tbaa !33
  %140 = getelementptr inbounds nuw %struct.lua_TValue, ptr %139, i32 0, i32 2
  %141 = load i32, ptr %140, align 4, !tbaa !34
  %142 = sext i32 %141 to i64
  %143 = getelementptr inbounds [11 x ptr], ptr %138, i64 0, i64 %142
  %144 = load ptr, ptr %143, align 8, !tbaa !24
  store ptr %144, ptr %3, align 8
  br label %145

145:                                              ; preds = %134, %132, %94, %63
  %146 = load ptr, ptr %3, align 8
  ret ptr %146

147:                                              ; preds = %132, %94
  unreachable
}

; Function Attrs: mustprogress uwtable
define hidden noundef ptr @_Z16luaT_objtypenameP9lua_StatePK10lua_TValue(ptr noundef %0, ptr noundef %1) #0 {
  %3 = alloca ptr, align 8
  %4 = alloca ptr, align 8
  store ptr %0, ptr %3, align 8, !tbaa !4
  store ptr %1, ptr %4, align 8, !tbaa !33
  %5 = load ptr, ptr %3, align 8, !tbaa !4
  %6 = load ptr, ptr %4, align 8, !tbaa !33
  %7 = call noundef ptr @_Z19luaT_objtypenamestrP9lua_StatePK10lua_TValue(ptr noundef %5, ptr noundef %6)
  %8 = getelementptr inbounds nuw %struct.TString, ptr %7, i32 0, i32 7
  %9 = getelementptr inbounds [1 x i8], ptr %8, i64 0, i64 0
  ret ptr %9
}