; Function Attrs: mustprogress uwtable
define hidden noundef nonnull ptr @_Z16luaT_objtypenameP9lua_StatePK10lua_TValue(ptr noundef readonly captures(none) %0, ptr noundef readonly captures(none) %1) local_unnamed_addr #0 {
  %3 = getelementptr inbounds nuw i8, ptr %1, i64 12
  %4 = load i32, ptr %3, align 4, !tbaa !27
  switch i32 %4, label %.thread.i [
    i32 8, label %5
    i32 2, label %28
  ]

5:                                                ; preds = %2
  %6 = load ptr, ptr %1, align 8, !tbaa !32
  %7 = getelementptr inbounds nuw i8, ptr %6, i64 3
  %8 = load i8, ptr %7, align 1, !tbaa !34
  %.not.i = icmp eq i8 %8, -127
  br i1 %.not.i, label %.thread.i, label %9

9:                                                ; preds = %5
  %10 = getelementptr inbounds nuw i8, ptr %6, i64 8
  %11 = load ptr, ptr %10, align 8, !tbaa !36
  %.not37.i = icmp eq ptr %11, null
  br i1 %.not37.i, label %.thread.i, label %12

12:                                               ; preds = %9
  %13 = getelementptr inbounds nuw i8, ptr %0, i64 24
  %14 = load ptr, ptr %13, align 8, !tbaa !9
  %15 = getelementptr inbounds nuw i8, ptr %14, i64 3184
  %16 = load ptr, ptr %15, align 8, !tbaa !21
  %17 = tail call noundef ptr @_Z11luaH_getstrP8LuaTableP7TString(ptr noundef nonnull %11, ptr noundef %16)
  %18 = getelementptr inbounds nuw i8, ptr %17, i64 12
  %19 = load i32, ptr %18, align 4, !tbaa !27
  %20 = icmp eq i32 %19, 5
  br i1 %20, label %27, label %21

21:                                               ; preds = %12
  %22 = load ptr, ptr %13, align 8, !tbaa !9
  %23 = getelementptr inbounds nuw i8, ptr %22, i64 2944
  %24 = load i32, ptr %3, align 4, !tbaa !27
  %25 = sext i32 %24 to i64
  %26 = getelementptr inbounds [11 x ptr], ptr %23, i64 0, i64 %25
  br label %27

27:                                               ; preds = %21, %12
  %.0.in.i = phi ptr [ %26, %21 ], [ %17, %12 ]
  %.0.i = load ptr, ptr %.0.in.i, align 8, !tbaa !32
  br label %_Z19luaT_objtypenamestrP9lua_StatePK10lua_TValue.exit

28:                                               ; preds = %2
  %29 = getelementptr inbounds nuw i8, ptr %1, i64 8
  %30 = load i32, ptr %29, align 8, !tbaa !37
  %31 = icmp ult i32 %30, 128
  br i1 %31, label %32, label %.thread.i

32:                                               ; preds = %28
  %33 = getelementptr inbounds nuw i8, ptr %0, i64 24
  %34 = load ptr, ptr %33, align 8, !tbaa !9
  %35 = getelementptr inbounds nuw i8, ptr %34, i64 5472
  %36 = zext nneg i32 %30 to i64
  %37 = getelementptr inbounds nuw [128 x ptr], ptr %35, i64 0, i64 %36
  %38 = load ptr, ptr %37, align 8, !tbaa !21
  %.not38.i = icmp eq ptr %38, null
  br i1 %.not38.i, label %.thread.i, label %_Z19luaT_objtypenamestrP9lua_StatePK10lua_TValue.exit

.thread.i:                                        ; preds = %32, %28, %9, %5, %2
  %39 = getelementptr inbounds nuw i8, ptr %0, i64 24
  %40 = load ptr, ptr %39, align 8, !tbaa !9
  %41 = getelementptr inbounds nuw i8, ptr %40, i64 2856
  %42 = sext i32 %4 to i64
  %43 = getelementptr inbounds [11 x ptr], ptr %41, i64 0, i64 %42
  %44 = load ptr, ptr %43, align 8, !tbaa !33
  %.not39.i = icmp eq ptr %44, null
  br i1 %.not39.i, label %53, label %45

45:                                               ; preds = %.thread.i
  %46 = getelementptr inbounds nuw i8, ptr %40, i64 3184
  %47 = load ptr, ptr %46, align 8, !tbaa !21
  %48 = tail call noundef ptr @_Z11luaH_getstrP8LuaTableP7TString(ptr noundef nonnull %44, ptr noundef %47)
  %49 = getelementptr inbounds nuw i8, ptr %48, i64 12
  %50 = load i32, ptr %49, align 4, !tbaa !27
  %.not40.i = icmp eq i32 %50, 5
  br i1 %.not40.i, label %51, label %._crit_edge.i

._crit_edge.i:                                    ; preds = %45
  %.pre.i = load ptr, ptr %39, align 8, !tbaa !9
  %.pre54.i = load i32, ptr %3, align 4, !tbaa !27
  %.pre55.i = sext i32 %.pre54.i to i64
  br label %53

51:                                               ; preds = %45
  %52 = load ptr, ptr %48, align 8, !tbaa !32
  br label %_Z19luaT_objtypenamestrP9lua_StatePK10lua_TValue.exit

53:                                               ; preds = %._crit_edge.i, %.thread.i
  %.pre-phi.i = phi i64 [ %.pre55.i, %._crit_edge.i ], [ %42, %.thread.i ]
  %54 = phi ptr [ %.pre.i, %._crit_edge.i ], [ %40, %.thread.i ]
  %55 = getelementptr inbounds nuw i8, ptr %54, i64 2944
  %56 = getelementptr inbounds [11 x ptr], ptr %55, i64 0, i64 %.pre-phi.i
  %57 = load ptr, ptr %56, align 8, !tbaa !21
  br label %_Z19luaT_objtypenamestrP9lua_StatePK10lua_TValue.exit

_Z19luaT_objtypenamestrP9lua_StatePK10lua_TValue.exit: ; preds = %27, %32, %51, %53
  %.1.i = phi ptr [ %.0.i, %27 ], [ %52, %51 ], [ %57, %53 ], [ %38, %32 ]
  %58 = getelementptr inbounds nuw i8, ptr %.1.i, i64 24
  ret ptr %58
}